target datalayout = "e-m:e-p270:32:32-p271:32:32-p272:64:64-i64:64-i128:128-f80:128-n8:16:32:64-S128"
target triple = "x86_64-unknown-linux-gnu"

%"class.std::basic_ios" = type { %"class.std::ios_base", ptr, i8, i8, ptr, ptr, ptr, ptr }
%"class.std::ios_base" = type { ptr, i64, i64, i32, i32, i32, ptr, %"struct.std::ios_base::_Words", [8 x %"struct.std::ios_base::_Words"], i32, ptr, %"class.std::locale" }
%"struct.std::ios_base::_Words" = type { ptr, i64 }
%"class.std::locale" = type { ptr }
%"class.std::__cxx11::basic_string" = type { %"struct.std::__cxx11::basic_string<char>::_Alloc_hider", i64, %union.anon }
%"struct.std::__cxx11::basic_string<char>::_Alloc_hider" = type { ptr }
%union.anon = type { i64, [8 x i8] }
%"class.testing::AssertionResult" = type { i8, %"class.std::unique_ptr.53" }
%"class.std::unique_ptr.53" = type { %"struct.std::__uniq_ptr_data.54" }
%"struct.std::__uniq_ptr_data.54" = type { %"class.std::__uniq_ptr_impl.55" }
%"class.std::__uniq_ptr_impl.55" = type { %"class.std::tuple.56" }
%"class.std::tuple.56" = type { %"struct.std::_Tuple_impl.57" }
%"struct.std::_Tuple_impl.57" = type { %"struct.std::_Head_base.60" }
%"struct.std::_Head_base.60" = type { ptr }
%"class.std::__cxx11::basic_stringstream" = type { %"class.std::basic_iostream.base", %"class.std::__cxx11::basic_stringbuf", %"class.std::basic_ios" }
%"class.std::basic_iostream.base" = type { %"class.std::basic_istream.base", %"class.std::basic_ostream.base" }
%"class.std::basic_istream.base" = type { ptr, i64 }
%"class.std::basic_ostream.base" = type { ptr }
%"class.std::__cxx11::basic_stringbuf" = type { %"class.std::basic_streambuf", i32, %"class.std::__cxx11::basic_string" }
%"class.std::basic_streambuf" = type { ptr, ptr, ptr, ptr, ptr, ptr, ptr, %"class.std::locale" }
%"struct.(anonymous namespace)::CustomUDT" = type { i32, i32 }

; Function Attrs: mustprogress uwtable
define internal void @_ZN7testing8internal15RawBytesPrinter10PrintValueIN12_GLOBAL__N_19CustomUDTELm8EEEvRKT_PSo(ptr noundef nonnull align 4 dereferenceable(8) %value, ptr noundef %os) #4 align 2 {
entry:
  %value.addr = alloca ptr, align 8
  %os.addr = alloca ptr, align 8
  store ptr %value, ptr %value.addr, align 8
  store ptr %os, ptr %os.addr, align 8
  %0 = load ptr, ptr %value.addr, align 8
  %1 = load ptr, ptr %os.addr, align 8
  call void @_ZN7testing8internal20PrintBytesInObjectToEPKhmPSo(ptr noundef %0, i64 noundef 8, ptr noundef %1)
  ret void
}

; Function Attrs: mustprogress uwtable
define internal void @_ZN7testing8internal17PrintWithFallbackIN12_GLOBAL__N_19CustomUDTEEEvRKT_PSo(ptr noundef nonnull align 4 dereferenceable(8) %value, ptr noundef %os) #4 {
entry:
  %value.addr = alloca ptr, align 8
  %os.addr = alloca ptr, align 8
  store ptr %value, ptr %value.addr, align 8
  store ptr %os, ptr %os.addr, align 8
  %0 = load ptr, ptr %value.addr, align 8
  %1 = load ptr, ptr %os.addr, align 8
  call void @_ZN7testing8internal15RawBytesPrinter10PrintValueIN12_GLOBAL__N_19CustomUDTELm8EEEvRKT_PSo(ptr noundef nonnull align 4 dereferenceable(8) %0, ptr noundef %1)
  ret void
}

; Function Attrs: mustprogress uwtable
define internal void @_ZN7testing8internal7PrintToIN12_GLOBAL__N_19CustomUDTEEEvRKT_PSo(ptr noundef nonnull align 4 dereferenceable(8) %value, ptr noundef %os) #4 {
entry:
  %value.addr = alloca ptr, align 8
  %os.addr = alloca ptr, align 8
  store ptr %value, ptr %value.addr, align 8
  store ptr %os, ptr %os.addr, align 8
  %0 = load ptr, ptr %value.addr, align 8
  %1 = load ptr, ptr %os.addr, align 8
  call void @_ZN7testing8internal17PrintWithFallbackIN12_GLOBAL__N_19CustomUDTEEEvRKT_PSo(ptr noundef nonnull align 4 dereferenceable(8) %0, ptr noundef %1)
  ret void
}

; Function Attrs: mustprogress uwtable
define internal void @_ZN7testing8internal16UniversalPrinterIN12_GLOBAL__N_19CustomUDTEE5PrintERKS3_PSo(ptr noundef nonnull align 4 dereferenceable(8) %value, ptr noundef %os) #4 align 2 {
entry:
  %value.addr = alloca ptr, align 8
  %os.addr = alloca ptr, align 8
  store ptr %value, ptr %value.addr, align 8
  store ptr %os, ptr %os.addr, align 8
  %0 = load ptr, ptr %value.addr, align 8
  %1 = load ptr, ptr %os.addr, align 8
  call void @_ZN7testing8internal7PrintToIN12_GLOBAL__N_19CustomUDTEEEvRKT_PSo(ptr noundef nonnull align 4 dereferenceable(8) %0, ptr noundef %1)
  ret void
}

; Function Attrs: mustprogress uwtable
define internal void @_ZN7testing8internal14UniversalPrintIN12_GLOBAL__N_19CustomUDTEEEvRKT_PSo(ptr noundef nonnull align 4 dereferenceable(8) %value, ptr noundef %os) #4 {
entry:
  %value.addr = alloca ptr, align 8
  %os.addr = alloca ptr, align 8
  store ptr %value, ptr %value.addr, align 8
  store ptr %os, ptr %os.addr, align 8
  %0 = load ptr, ptr %value.addr, align 8
  %1 = load ptr, ptr %os.addr, align 8
  call void @_ZN7testing8internal16UniversalPrinterIN12_GLOBAL__N_19CustomUDTEE5PrintERKS3_PSo(ptr noundef nonnull align 4 dereferenceable(8) %0, ptr noundef %1)
  ret void
}

; Function Attrs: mustprogress uwtable
define internal void @_ZN7testing8internal21UniversalTersePrinterIN12_GLOBAL__N_19CustomUDTEE5PrintERKS3_PSo(ptr noundef nonnull align 4 dereferenceable(8) %value, ptr noundef %os) #4 align 2 {
entry:
  %value.addr = alloca ptr, align 8
  %os.addr = alloca ptr, align 8
  store ptr %value, ptr %value.addr, align 8
  store ptr %os, ptr %os.addr, align 8
  %0 = load ptr, ptr %value.addr, align 8
  %1 = load ptr, ptr %os.addr, align 8
  call void @_ZN7testing8internal14UniversalPrintIN12_GLOBAL__N_19CustomUDTEEEvRKT_PSo(ptr noundef nonnull align 4 dereferenceable(8) %0, ptr noundef %1)
  ret void
}

; Function Attrs: mustprogress uwtable
define internal void @_ZN7testing13PrintToStringIN12_GLOBAL__N_19CustomUDTEEENSt7__cxx1112basic_stringIcSt11char_traitsIcESaIcEEERKT_(ptr noalias sret(%"class.std::__cxx11::basic_string") align 8 %agg.result, ptr noundef nonnull align 4 dereferenceable(8) %value) #4 personality ptr @__gxx_personality_v0 {
entry:
  %result.ptr = alloca ptr, align 8
  %value.addr = alloca ptr, align 8
  %ss = alloca %"class.std::__cxx11::basic_stringstream", align 8
  %exn.slot = alloca ptr, align 8
  %ehselector.slot = alloca i32, align 4
  store ptr %agg.result, ptr %result.ptr, align 8
  store ptr %value, ptr %value.addr, align 8
  call void @_ZNSt7__cxx1118basic_stringstreamIcSt11char_traitsIcESaIcEEC1Ev(ptr noundef nonnull align 8 dereferenceable(128) %ss)
  %0 = load ptr, ptr %value.addr, align 8
  %1 = icmp eq ptr %ss, null
  br i1 %1, label %cast.end, label %cast.notnull

cast.notnull:                                     ; preds = %entry
  %add.ptr = getelementptr inbounds i8, ptr %ss, i64 16
  br label %cast.end

cast.end:                                         ; preds = %cast.notnull, %entry
  %cast.result = phi ptr [ %add.ptr, %cast.notnull ], [ null, %entry ]
  invoke void @_ZN7testing8internal21UniversalTersePrinterIN12_GLOBAL__N_19CustomUDTEE5PrintERKS3_PSo(ptr noundef nonnull align 4 dereferenceable(8) %0, ptr noundef %cast.result)
          to label %invoke.cont unwind label %lpad

invoke.cont:                                      ; preds = %cast.end
  invoke void @_ZNKSt7__cxx1118basic_stringstreamIcSt11char_traitsIcESaIcEE3strEv(ptr sret(%"class.std::__cxx11::basic_string") align 8 %agg.result, ptr noundef nonnull align 8 dereferenceable(128) %ss)
          to label %invoke.cont1 unwind label %lpad

invoke.cont1:                                     ; preds = %invoke.cont
  call void @_ZNSt7__cxx1118basic_stringstreamIcSt11char_traitsIcESaIcEED1Ev(ptr noundef nonnull align 8 dereferenceable(128) %ss) #3
  ret void

lpad:                                             ; preds = %invoke.cont, %cast.end
  %2 = landingpad { ptr, i32 }
          cleanup
  %3 = extractvalue { ptr, i32 } %2, 0
  store ptr %3, ptr %exn.slot, align 8
  %4 = extractvalue { ptr, i32 } %2, 1
  store i32 %4, ptr %ehselector.slot, align 4
  call void @_ZNSt7__cxx1118basic_stringstreamIcSt11char_traitsIcESaIcEED1Ev(ptr noundef nonnull align 8 dereferenceable(128) %ss) #3
  br label %eh.resume

eh.resume:                                        ; preds = %lpad
  %exn = load ptr, ptr %exn.slot, align 8
  %sel = load i32, ptr %ehselector.slot, align 4
  %lpad.val = insertvalue { ptr, i32 } poison, ptr %exn, 0
  %lpad.val2 = insertvalue { ptr, i32 } %lpad.val, i32 %sel, 1
  resume { ptr, i32 } %lpad.val2
}

; Function Attrs: mustprogress uwtable
define internal void @_ZN7testing8internal19FormatForComparisonIN12_GLOBAL__N_19CustomUDTES3_E6FormatB5cxx11ERKS3_(ptr noalias sret(%"class.std::__cxx11::basic_string") align 8 %agg.result, ptr noundef nonnull align 4 dereferenceable(8) %value) #4 align 2 {
entry:
  %result.ptr = alloca ptr, align 8
  %value.addr = alloca ptr, align 8
  store ptr %agg.result, ptr %result.ptr, align 8
  store ptr %value, ptr %value.addr, align 8
  %0 = load ptr, ptr %value.addr, align 8
  call void @_ZN7testing13PrintToStringIN12_GLOBAL__N_19CustomUDTEEENSt7__cxx1112basic_stringIcSt11char_traitsIcESaIcEEERKT_(ptr sret(%"class.std::__cxx11::basic_string") align 8 %agg.result, ptr noundef nonnull align 4 dereferenceable(8) %0)
  ret void
}

; Function Attrs: mustprogress uwtable
define internal void @_ZN7testing8internal33FormatForComparisonFailureMessageIN12_GLOBAL__N_19CustomUDTES3_EENSt7__cxx1112basic_stringIcSt11char_traitsIcESaIcEEERKT_RKT0_(ptr noalias sret(%"class.std::__cxx11::basic_string") align 8 %agg.result, ptr noundef nonnull align 4 dereferenceable(8) %value, ptr noundef nonnull align 4 dereferenceable(8) %0) #4 {
entry:
  %result.ptr = alloca ptr, align 8
  %value.addr = alloca ptr, align 8
  %.addr = alloca ptr, align 8
  store ptr %agg.result, ptr %result.ptr, align 8
  store ptr %value, ptr %value.addr, align 8
  store ptr %0, ptr %.addr, align 8
  %1 = load ptr, ptr %value.addr, align 8
  call void @_ZN7testing8internal19FormatForComparisonIN12_GLOBAL__N_19CustomUDTES3_E6FormatB5cxx11ERKS3_(ptr sret(%"class.std::__cxx11::basic_string") align 8 %agg.result, ptr noundef nonnull align 4 dereferenceable(8) %1)
  ret void
}

; Function Attrs: mustprogress uwtable
define internal void @_ZN7testing8internal18CmpHelperEQFailureIN12_GLOBAL__N_19CustomUDTES3_EENS_15AssertionResultEPKcS6_RKT_RKT0_(ptr noalias sret(%"class.testing::AssertionResult") align 8 %agg.result, ptr noundef %lhs_expression, ptr noundef %rhs_expression, ptr noundef nonnull align 4 dereferenceable(8) %lhs, ptr noundef nonnull align 4 dereferenceable(8) %rhs) #4 personality ptr @__gxx_personality_v0 {
entry:
  %result.ptr = alloca ptr, align 8
  %lhs_expression.addr = alloca ptr, align 8
  %rhs_expression.addr = alloca ptr, align 8
  %lhs.addr = alloca ptr, align 8
  %rhs.addr = alloca ptr, align 8
  %ref.tmp = alloca %"class.std::__cxx11::basic_string", align 8
  %ref.tmp1 = alloca %"class.std::__cxx11::basic_string", align 8
  %exn.slot = alloca ptr, align 8
  %ehselector.slot = alloca i32, align 4
  store ptr %agg.result, ptr %result.ptr, align 8
  store ptr %lhs_expression, ptr %lhs_expression.addr, align 8
  store ptr %rhs_expression, ptr %rhs_expression.addr, align 8
  store ptr %lhs, ptr %lhs.addr, align 8
  store ptr %rhs, ptr %rhs.addr, align 8
  %0 = load ptr, ptr %lhs_expression.addr, align 8
  %1 = load ptr, ptr %rhs_expression.addr, align 8
  %2 = load ptr, ptr %lhs.addr, align 8
  %3 = load ptr, ptr %rhs.addr, align 8
  call void @_ZN7testing8internal33FormatForComparisonFailureMessageIN12_GLOBAL__N_19CustomUDTES3_EENSt7__cxx1112basic_stringIcSt11char_traitsIcESaIcEEERKT_RKT0_(ptr sret(%"class.std::__cxx11::basic_string") align 8 %ref.tmp, ptr noundef nonnull align 4 dereferenceable(8) %2, ptr noundef nonnull align 4 dereferenceable(8) %3)
  %4 = load ptr, ptr %rhs.addr, align 8
  %5 = load ptr, ptr %lhs.addr, align 8
  invoke void @_ZN7testing8internal33FormatForComparisonFailureMessageIN12_GLOBAL__N_19CustomUDTES3_EENSt7__cxx1112basic_stringIcSt11char_traitsIcESaIcEEERKT_RKT0_(ptr sret(%"class.std::__cxx11::basic_string") align 8 %ref.tmp1, ptr noundef nonnull align 4 dereferenceable(8) %4, ptr noundef nonnull align 4 dereferenceable(8) %5)
          to label %invoke.cont unwind label %lpad

invoke.cont:                                      ; preds = %entry
  invoke void @_ZN7testing8internal9EqFailureEPKcS2_RKNSt7__cxx1112basic_stringIcSt11char_traitsIcESaIcEEESA_b(ptr sret(%"class.testing::AssertionResult") align 8 %agg.result, ptr noundef %0, ptr noundef %1, ptr noundef nonnull align 8 dereferenceable(32) %ref.tmp, ptr noundef nonnull align 8 dereferenceable(32) %ref.tmp1, i1 noundef zeroext false)
          to label %invoke.cont3 unwind label %lpad2

invoke.cont3:                                     ; preds = %invoke.cont
  call void @_ZNSt7__cxx1112basic_stringIcSt11char_traitsIcESaIcEED1Ev(ptr noundef nonnull align 8 dereferenceable(32) %ref.tmp1) #3
  call void @_ZNSt7__cxx1112basic_stringIcSt11char_traitsIcESaIcEED1Ev(ptr noundef nonnull align 8 dereferenceable(32) %ref.tmp) #3
  ret void

lpad:                                             ; preds = %entry
  %6 = landingpad { ptr, i32 }
          cleanup
  %7 = extractvalue { ptr, i32 } %6, 0
  store ptr %7, ptr %exn.slot, align 8
  %8 = extractvalue { ptr, i32 } %6, 1
  store i32 %8, ptr %ehselector.slot, align 4
  br label %ehcleanup

lpad2:                                            ; preds = %invoke.cont
  %9 = landingpad { ptr, i32 }
          cleanup
  %10 = extractvalue { ptr, i32 } %9, 0
  store ptr %10, ptr %exn.slot, align 8
  %11 = extractvalue { ptr, i32 } %9, 1
  store i32 %11, ptr %ehselector.slot, align 4
  call void @_ZNSt7__cxx1112basic_stringIcSt11char_traitsIcESaIcEED1Ev(ptr noundef nonnull align 8 dereferenceable(32) %ref.tmp1) #3
  br label %ehcleanup

ehcleanup:                                        ; preds = %lpad2, %lpad
  call void @_ZNSt7__cxx1112basic_stringIcSt11char_traitsIcESaIcEED1Ev(ptr noundef nonnull align 8 dereferenceable(32) %ref.tmp) #3
  br label %eh.resume

eh.resume:                                        ; preds = %ehcleanup
  %exn = load ptr, ptr %exn.slot, align 8
  %sel = load i32, ptr %ehselector.slot, align 4
  %lpad.val = insertvalue { ptr, i32 } poison, ptr %exn, 0
  %lpad.val4 = insertvalue { ptr, i32 } %lpad.val, i32 %sel, 1
  resume { ptr, i32 } %lpad.val4
}

; Function Attrs: mustprogress nounwind uwtable
define internal noundef zeroext i1 @_ZN12_GLOBAL__N_1eqERKNS_9CustomUDTES2_(ptr noundef nonnull align 4 dereferenceable(8) %f1, ptr noundef nonnull align 4 dereferenceable(8) %f2) #5 {
entry:
  %f1.addr = alloca ptr, align 8
  %f2.addr = alloca ptr, align 8
  store ptr %f1, ptr %f1.addr, align 8
  store ptr %f2, ptr %f2.addr, align 8
  %0 = load ptr, ptr %f1.addr, align 8
  %a = getelementptr inbounds %"struct.(anonymous namespace)::CustomUDT", ptr %0, i32 0, i32 0
  %1 = load i32, ptr %a, align 4
  %2 = load ptr, ptr %f2.addr, align 8
  %a1 = getelementptr inbounds %"struct.(anonymous namespace)::CustomUDT", ptr %2, i32 0, i32 0
  %3 = load i32, ptr %a1, align 4
  %cmp = icmp eq i32 %1, %3
  br i1 %cmp, label %land.rhs, label %land.end

land.rhs:                                         ; preds = %entry
  %4 = load ptr, ptr %f1.addr, align 8
  %b = getelementptr inbounds %"struct.(anonymous namespace)::CustomUDT", ptr %4, i32 0, i32 1
  %5 = load i32, ptr %b, align 4
  %6 = load ptr, ptr %f2.addr, align 8
  %b2 = getelementptr inbounds %"struct.(anonymous namespace)::CustomUDT", ptr %6, i32 0, i32 1
  %7 = load i32, ptr %b2, align 4
  %cmp3 = icmp eq i32 %5, %7
  br label %land.end

land.end:                                         ; preds = %land.rhs, %entry
  %8 = phi i1 [ false, %entry ], [ %cmp3, %land.rhs ]
  ret i1 %8
}

; Function Attrs: mustprogress uwtable
define internal void @_ZN7testing8internal11CmpHelperEQIN12_GLOBAL__N_19CustomUDTES3_EENS_15AssertionResultEPKcS6_RKT_RKT0_(ptr noalias sret(%"class.testing::AssertionResult") align 8 %agg.result, ptr noundef %lhs_expression, ptr noundef %rhs_expression, ptr noundef nonnull align 4 dereferenceable(8) %lhs, ptr noundef nonnull align 4 dereferenceable(8) %rhs) #4 {
entry:
  %result.ptr = alloca ptr, align 8
  %lhs_expression.addr = alloca ptr, align 8
  %rhs_expression.addr = alloca ptr, align 8
  %lhs.addr = alloca ptr, align 8
  %rhs.addr = alloca ptr, align 8
  store ptr %agg.result, ptr %result.ptr, align 8
  store ptr %lhs_expression, ptr %lhs_expression.addr, align 8
  store ptr %rhs_expression, ptr %rhs_expression.addr, align 8
  store ptr %lhs, ptr %lhs.addr, align 8
  store ptr %rhs, ptr %rhs.addr, align 8
  %0 = load ptr, ptr %lhs.addr, align 8
  %1 = load ptr, ptr %rhs.addr, align 8
  %call = call noundef zeroext i1 @_ZN12_GLOBAL__N_1eqERKNS_9CustomUDTES2_(ptr noundef nonnull align 4 dereferenceable(8) %0, ptr noundef nonnull align 4 dereferenceable(8) %1)
  br i1 %call, label %if.then, label %if.end

if.then:                                          ; preds = %entry
  call void @_ZN7testing16AssertionSuccessEv(ptr sret(%"class.testing::AssertionResult") align 8 %agg.result)
  br label %return

if.end:                                           ; preds = %entry
  %2 = load ptr, ptr %lhs_expression.addr, align 8
  %3 = load ptr, ptr %rhs_expression.addr, align 8
  %4 = load ptr, ptr %lhs.addr, align 8
  %5 = load ptr, ptr %rhs.addr, align 8
  call void @_ZN7testing8internal18CmpHelperEQFailureIN12_GLOBAL__N_19CustomUDTES3_EENS_15AssertionResultEPKcS6_RKT_RKT0_(ptr sret(%"class.testing::AssertionResult") align 8 %agg.result, ptr noundef %2, ptr noundef %3, ptr noundef nonnull align 4 dereferenceable(8) %4, ptr noundef nonnull align 4 dereferenceable(8) %5)
  br label %return

return:                                           ; preds = %if.end, %if.then
  ret void
}

; Function Attrs: mustprogress uwtable
define internal void @_ZN7testing8internal8EqHelper7CompareIN12_GLOBAL__N_19CustomUDTES4_TnPNSt9enable_ifIXoontsr3std11is_integralIT_EE5valuentsr3std10is_pointerIT0_EE5valueEvE4typeELPv0EEENS_15AssertionResultEPKcSE_RKS6_RKS7_(ptr noalias sret(%"class.testing::AssertionResult") align 8 %agg.result, ptr noundef %lhs_expression, ptr noundef %rhs_expression, ptr noundef nonnull align 4 dereferenceable(8) %lhs, ptr noundef nonnull align 4 dereferenceable(8) %rhs) #4 align 2 {
entry:
  %result.ptr = alloca ptr, align 8
  %lhs_expression.addr = alloca ptr, align 8
  %rhs_expression.addr = alloca ptr, align 8
  %lhs.addr = alloca ptr, align 8
  %rhs.addr = alloca ptr, align 8
  store ptr %agg.result, ptr %result.ptr, align 8
  store ptr %lhs_expression, ptr %lhs_expression.addr, align 8
  store ptr %rhs_expression, ptr %rhs_expression.addr, align 8
  store ptr %lhs, ptr %lhs.addr, align 8
  store ptr %rhs, ptr %rhs.addr, align 8
  %0 = load ptr, ptr %lhs_expression.addr, align 8
  %1 = load ptr, ptr %rhs_expression.addr, align 8
  %2 = load ptr, ptr %lhs.addr, align 8
  %3 = load ptr, ptr %rhs.addr, align 8
  call void @_ZN7testing8internal11CmpHelperEQIN12_GLOBAL__N_19CustomUDTES3_EENS_15AssertionResultEPKcS6_RKT_RKT0_(ptr sret(%"class.testing::AssertionResult") align 8 %agg.result, ptr noundef %0, ptr noundef %1, ptr noundef nonnull align 4 dereferenceable(8) %2, ptr noundef nonnull align 4 dereferenceable(8) %3)
  ret void
}