; Function Attrs: mustprogress uwtable
define internal fastcc void @_ZN7testing8internal8EqHelper7CompareIN12_GLOBAL__N_19CustomUDTES4_TnPNSt9enable_ifIXoontsr3std11is_integralIT_EE5valuentsr3std10is_pointerIT0_EE5valueEvE4typeELPv0EEENS_15AssertionResultEPKcSE_RKS6_RKS7_(ptr noalias align 8 %agg.result, ptr noundef nonnull align 4 dereferenceable(8) %lhs, ptr noundef nonnull align 4 dereferenceable(8) %rhs) unnamed_addr #3 align 2 personality ptr @__gxx_personality_v0 {
entry:
  %ss.i.i.i4.i.i = alloca %"class.std::__cxx11::basic_stringstream", align 8
  %ss.i.i.i.i.i = alloca %"class.std::__cxx11::basic_stringstream", align 8
  %ref.tmp.i.i = alloca %"class.std::__cxx11::basic_string", align 8
  %ref.tmp1.i.i = alloca %"class.std::__cxx11::basic_string", align 8
  %0 = load <2 x i32>, ptr %lhs, align 4, !noalias !228
  %1 = load <2 x i32>, ptr %rhs, align 4, !noalias !228
  %2 = icmp eq <2 x i32> %0, %1
  %3 = extractelement <2 x i1> %2, i64 0
  %4 = extractelement <2 x i1> %2, i64 1
  %5 = select i1 %3, i1 %4, i1 false
  br i1 %5, label %if.then.i, label %if.end.i

if.then.i:                                        ; preds = %entry
  tail call void @_ZN7testing16AssertionSuccessEv(ptr sret(%"class.testing::AssertionResult") align 8 %agg.result)
  br label %_ZN7testing8internal11CmpHelperEQIN12_GLOBAL__N_19CustomUDTES3_EENS_15AssertionResultEPKcS6_RKT_RKT0_.exit

if.end.i:                                         ; preds = %entry
  call void @llvm.lifetime.start.p0(i64 32, ptr nonnull %ref.tmp.i.i), !noalias !228
  call void @llvm.lifetime.start.p0(i64 32, ptr nonnull %ref.tmp1.i.i), !noalias !228
  call void @llvm.lifetime.start.p0(i64 392, ptr nonnull %ss.i.i.i.i.i), !noalias !231
  call void @_ZNSt7__cxx1118basic_stringstreamIcSt11char_traitsIcESaIcEEC1Ev(ptr noundef nonnull align 8 dereferenceable(128) %ss.i.i.i.i.i), !noalias !238
  %add.ptr.i.i.i.i.i = getelementptr inbounds i8, ptr %ss.i.i.i.i.i, i64 16
  invoke void @_ZN7testing8internal20PrintBytesInObjectToEPKhmPSo(ptr noundef nonnull %lhs, i64 noundef 8, ptr noundef nonnull %add.ptr.i.i.i.i.i)
          to label %invoke.cont.i.i.i.i.i unwind label %lpad.i.i.i.i.i, !noalias !238

invoke.cont.i.i.i.i.i:                            ; preds = %if.end.i
  invoke void @_ZNKSt7__cxx1118basic_stringstreamIcSt11char_traitsIcESaIcEE3strEv(ptr nonnull sret(%"class.std::__cxx11::basic_string") align 8 %ref.tmp.i.i, ptr noundef nonnull align 8 dereferenceable(128) %ss.i.i.i.i.i)
          to label %_ZN7testing8internal33FormatForComparisonFailureMessageIN12_GLOBAL__N_19CustomUDTES3_EENSt7__cxx1112basic_stringIcSt11char_traitsIcESaIcEEERKT_RKT0_.exit.i.i unwind label %lpad.i.i.i.i.i, !noalias !241

common.resume.i.i:                                ; preds = %ehcleanup.i.i, %lpad.i.i.i.i.i
  %common.resume.op.i.i = phi { ptr, i32 } [ %6, %lpad.i.i.i.i.i ], [ %.pn.i.i, %ehcleanup.i.i ]
  resume { ptr, i32 } %common.resume.op.i.i

lpad.i.i.i.i.i:                                   ; preds = %invoke.cont.i.i.i.i.i, %if.end.i
  %6 = landingpad { ptr, i32 }
          cleanup
  call void @_ZNSt7__cxx1118basic_stringstreamIcSt11char_traitsIcESaIcEED1Ev(ptr noundef nonnull align 8 dereferenceable(128) %ss.i.i.i.i.i) #28, !noalias !241
  br label %common.resume.i.i

_ZN7testing8internal33FormatForComparisonFailureMessageIN12_GLOBAL__N_19CustomUDTES3_EENSt7__cxx1112basic_stringIcSt11char_traitsIcESaIcEEERKT_RKT0_.exit.i.i: ; preds = %invoke.cont.i.i.i.i.i
  call void @_ZNSt7__cxx1118basic_stringstreamIcSt11char_traitsIcESaIcEED1Ev(ptr noundef nonnull align 8 dereferenceable(128) %ss.i.i.i.i.i) #28, !noalias !241
  call void @llvm.lifetime.end.p0(i64 392, ptr nonnull %ss.i.i.i.i.i), !noalias !231
  call void @llvm.lifetime.start.p0(i64 392, ptr nonnull %ss.i.i.i4.i.i), !noalias !242
  invoke void @_ZNSt7__cxx1118basic_stringstreamIcSt11char_traitsIcESaIcEEC1Ev(ptr noundef nonnull align 8 dereferenceable(128) %ss.i.i.i4.i.i)
          to label %.noexc.i.i unwind label %lpad.i.i, !noalias !241

.noexc.i.i:                                       ; preds = %_ZN7testing8internal33FormatForComparisonFailureMessageIN12_GLOBAL__N_19CustomUDTES3_EENSt7__cxx1112basic_stringIcSt11char_traitsIcESaIcEEERKT_RKT0_.exit.i.i
  %add.ptr.i.i.i5.i.i = getelementptr inbounds i8, ptr %ss.i.i.i4.i.i, i64 16
  invoke void @_ZN7testing8internal20PrintBytesInObjectToEPKhmPSo(ptr noundef nonnull %rhs, i64 noundef 8, ptr noundef nonnull %add.ptr.i.i.i5.i.i)
          to label %invoke.cont.i.i.i7.i.i unwind label %lpad.i.i.i6.i.i, !noalias !247

invoke.cont.i.i.i7.i.i:                           ; preds = %.noexc.i.i
  invoke void @_ZNKSt7__cxx1118basic_stringstreamIcSt11char_traitsIcESaIcEE3strEv(ptr nonnull sret(%"class.std::__cxx11::basic_string") align 8 %ref.tmp1.i.i, ptr noundef nonnull align 8 dereferenceable(128) %ss.i.i.i4.i.i)
          to label %invoke.cont.i.i unwind label %lpad.i.i.i6.i.i, !noalias !241

lpad.i.i.i6.i.i:                                  ; preds = %invoke.cont.i.i.i7.i.i, %.noexc.i.i
  %7 = landingpad { ptr, i32 }
          cleanup
  call void @_ZNSt7__cxx1118basic_stringstreamIcSt11char_traitsIcESaIcEED1Ev(ptr noundef nonnull align 8 dereferenceable(128) %ss.i.i.i4.i.i) #28, !noalias !241
  br label %ehcleanup.i.i

invoke.cont.i.i:                                  ; preds = %invoke.cont.i.i.i7.i.i
  call void @_ZNSt7__cxx1118basic_stringstreamIcSt11char_traitsIcESaIcEED1Ev(ptr noundef nonnull align 8 dereferenceable(128) %ss.i.i.i4.i.i) #28, !noalias !241
  call void @llvm.lifetime.end.p0(i64 392, ptr nonnull %ss.i.i.i4.i.i), !noalias !242
  invoke void @_ZN7testing8internal9EqFailureEPKcS2_RKNSt7__cxx1112basic_stringIcSt11char_traitsIcESaIcEEESA_b(ptr sret(%"class.testing::AssertionResult") align 8 %agg.result, ptr noundef nonnull @.str.118, ptr noundef nonnull @.str.119, ptr noundef nonnull align 8 dereferenceable(32) %ref.tmp.i.i, ptr noundef nonnull align 8 dereferenceable(32) %ref.tmp1.i.i, i1 noundef zeroext false)
          to label %_ZN7testing8internal18CmpHelperEQFailureIN12_GLOBAL__N_19CustomUDTES3_EENS_15AssertionResultEPKcS6_RKT_RKT0_.exit.i unwind label %lpad2.i.i

lpad.i.i:                                         ; preds = %_ZN7testing8internal33FormatForComparisonFailureMessageIN12_GLOBAL__N_19CustomUDTES3_EENSt7__cxx1112basic_stringIcSt11char_traitsIcESaIcEEERKT_RKT0_.exit.i.i
  %8 = landingpad { ptr, i32 }
          cleanup
  br label %ehcleanup.i.i

lpad2.i.i:                                        ; preds = %invoke.cont.i.i
  %9 = landingpad { ptr, i32 }
          cleanup
  call void @_ZNSt7__cxx1112basic_stringIcSt11char_traitsIcESaIcEED1Ev(ptr noundef nonnull align 8 dereferenceable(32) %ref.tmp1.i.i) #28
  br label %ehcleanup.i.i

ehcleanup.i.i:                                    ; preds = %lpad2.i.i, %lpad.i.i, %lpad.i.i.i6.i.i
  %.pn.i.i = phi { ptr, i32 } [ %9, %lpad2.i.i ], [ %8, %lpad.i.i ], [ %7, %lpad.i.i.i6.i.i ]
  call void @_ZNSt7__cxx1112basic_stringIcSt11char_traitsIcESaIcEED1Ev(ptr noundef nonnull align 8 dereferenceable(32) %ref.tmp.i.i) #28
  br label %common.resume.i.i

_ZN7testing8internal18CmpHelperEQFailureIN12_GLOBAL__N_19CustomUDTES3_EENS_15AssertionResultEPKcS6_RKT_RKT0_.exit.i: ; preds = %invoke.cont.i.i
  call void @_ZNSt7__cxx1112basic_stringIcSt11char_traitsIcESaIcEED1Ev(ptr noundef nonnull align 8 dereferenceable(32) %ref.tmp1.i.i) #28
  call void @_ZNSt7__cxx1112basic_stringIcSt11char_traitsIcESaIcEED1Ev(ptr noundef nonnull align 8 dereferenceable(32) %ref.tmp.i.i) #28
  call void @llvm.lifetime.end.p0(i64 32, ptr nonnull %ref.tmp.i.i), !noalias !228
  call void @llvm.lifetime.end.p0(i64 32, ptr nonnull %ref.tmp1.i.i), !noalias !228
  br label %_ZN7testing8internal11CmpHelperEQIN12_GLOBAL__N_19CustomUDTES3_EENS_15AssertionResultEPKcS6_RKT_RKT0_.exit

_ZN7testing8internal11CmpHelperEQIN12_GLOBAL__N_19CustomUDTES3_EENS_15AssertionResultEPKcS6_RKT_RKT0_.exit: ; preds = %if.then.i, %_ZN7testing8internal18CmpHelperEQFailureIN12_GLOBAL__N_19CustomUDTES3_EENS_15AssertionResultEPKcS6_RKT_RKT0_.exit.i
  ret void
}